target datalayout = "e-m:e-p270:32:32-p271:32:32-p272:64:64-i64:64-i128:128-f80:128-n8:16:32:64-S128"
target triple = "x86_64-pc-linux-gnu"

@ruby_tz_uptodate_p = hidden global i8 0, align 1

; Function Attrs: nounwind sspstrong uwtable
define internal void @update_tz() #0 {
  %1 = load i8, ptr @ruby_tz_uptodate_p, align 1, !tbaa !7, !range !101, !noundef !102
  %2 = trunc i8 %1 to i1
  br i1 %2, label %3, label %4

3:                                                ; preds = %0
  br label %5

4:                                                ; preds = %0
  store i8 1, ptr @ruby_tz_uptodate_p, align 1, !tbaa !7
  call void @tzset() #22
  br label %5

5:                                                ; preds = %4, %3
  ret void
}

; Function Attrs: nounwind sspstrong uwtable
define internal ptr @rb_localtime_r(ptr noundef %0, ptr noundef %1) #0 {
  %3 = alloca ptr, align 8
  %4 = alloca ptr, align 8
  store ptr %0, ptr %3, align 8, !tbaa !16
  store ptr %1, ptr %4, align 8, !tbaa !95
  call void @update_tz()
  %5 = load ptr, ptr %3, align 8, !tbaa !16
  %6 = load ptr, ptr %4, align 8, !tbaa !95
  %7 = call ptr @localtime_r(ptr noundef %5, ptr noundef %6) #22
  store ptr %7, ptr %4, align 8, !tbaa !95
  %8 = load ptr, ptr %4, align 8, !tbaa !95
  ret ptr %8
}