; Function Attrs: nounwind sspstrong uwtable
define internal fastcc ptr @rb_localtime_r(ptr noundef %0, ptr noundef nonnull %1) unnamed_addr #1 {
  %3 = load i8, ptr @ruby_tz_uptodate_p, align 1, !tbaa !7, !range !115, !noundef !116
  %4 = trunc nuw i8 %3 to i1
  br i1 %4, label %update_tz.exit, label %5

5:                                                ; preds = %2
  store i8 1, ptr @ruby_tz_uptodate_p, align 1, !tbaa !7
  tail call void @tzset() #21
  br label %update_tz.exit

update_tz.exit:                                   ; preds = %2, %5
  %6 = tail call ptr @localtime_r(ptr noundef %0, ptr noundef nonnull %1) #21
  ret ptr %6
}